; ModuleID = '41/552.cpp'
source_filename = "41/552.cpp"
target datalayout = "e-m:e-p270:32:32-p271:32:32-p272:64:64-i64:64-f80:128-n8:16:32:64-S128"
target triple = "x86_64-pc-linux-gnu"

%"class.std::ios_base::Init" = type { i8 }
%"class.std::basic_ostream" = type { i32 (...)**, %"class.std::basic_ios" }
%"class.std::basic_ios" = type { %"class.std::ios_base", %"class.std::basic_ostream"*, i8, i8, %"class.std::basic_streambuf"*, %"class.std::ctype"*, %"class.std::num_put"*, %"class.std::num_get"* }
%"class.std::ios_base" = type { i32 (...)**, i64, i64, i32, i32, i32, %"struct.std::ios_base::_Callback_list"*, %"struct.std::ios_base::_Words", [8 x %"struct.std::ios_base::_Words"], i32, %"struct.std::ios_base::_Words"*, %"class.std::locale" }
%"struct.std::ios_base::_Callback_list" = type { %"struct.std::ios_base::_Callback_list"*, void (i32, %"class.std::ios_base"*, i32)*, i32, i32 }
%"struct.std::ios_base::_Words" = type { i8*, i64 }
%"class.std::locale" = type { %"class.std::locale::_Impl"* }
%"class.std::locale::_Impl" = type { i32, %"class.std::locale::facet"**, i64, %"class.std::locale::facet"**, i8** }
%"class.std::locale::facet" = type <{ i32 (...)**, i32, [4 x i8] }>
%"class.std::basic_streambuf" = type { i32 (...)**, i8*, i8*, i8*, i8*, i8*, i8*, %"class.std::locale" }
%"class.std::ctype" = type <{ %"class.std::locale::facet.base", [4 x i8], %struct.__locale_struct*, i8, [7 x i8], i32*, i32*, i16*, i8, [256 x i8], [256 x i8], i8, [6 x i8] }>
%"class.std::locale::facet.base" = type <{ i32 (...)**, i32 }>
%struct.__locale_struct = type { [13 x %struct.__locale_data*], i16*, i32*, i32*, [13 x i8*] }
%struct.__locale_data = type opaque
%"class.std::num_put" = type { %"class.std::locale::facet.base", [4 x i8] }
%"class.std::num_get" = type { %"class.std::locale::facet.base", [4 x i8] }

@_ZStL8__ioinit = internal global %"class.std::ios_base::Init" zeroinitializer, align 1
@__dso_handle = external hidden global i8
@_ZSt4cout = external dso_local global %"class.std::basic_ostream", align 8
@.str = private unnamed_addr constant [2 x i8] c" \00", align 1
@llvm.global_ctors = appending global [1 x { i32, void ()*, i8* }] [{ i32, void ()*, i8* } { i32 65535, void ()* @_GLOBAL__sub_I_552.cpp, i8* null }]

; Function Attrs: noinline uwtable
define internal void @__cxx_global_var_init() #0 section ".text.startup" {
  call void @_ZNSt8ios_base4InitC1Ev(%"class.std::ios_base::Init"* @_ZStL8__ioinit)
  %1 = call i32 @__cxa_atexit(void (i8*)* bitcast (void (%"class.std::ios_base::Init"*)* @_ZNSt8ios_base4InitD1Ev to void (i8*)*), i8* getelementptr inbounds (%"class.std::ios_base::Init", %"class.std::ios_base::Init"* @_ZStL8__ioinit, i32 0, i32 0), i8* @__dso_handle) #3
  ret void
}

declare dso_local void @_ZNSt8ios_base4InitC1Ev(%"class.std::ios_base::Init"*) unnamed_addr #1

; Function Attrs: nounwind
declare dso_local void @_ZNSt8ios_base4InitD1Ev(%"class.std::ios_base::Init"*) unnamed_addr #2

; Function Attrs: nounwind
declare dso_local i32 @__cxa_atexit(void (i8*)*, i8*, i8*) #3

; Function Attrs: noinline nounwind uwtable
define dso_local i32 @_Z2bbii(i32 %0, i32 %1) #4 {
  %3 = alloca i32, align 4
  %4 = alloca i32, align 4
  %5 = alloca i32, align 4
  store i32 %0, i32* %4, align 4
  store i32 %1, i32* %5, align 4
  %6 = load i32, i32* %4, align 4
  %7 = icmp eq i32 %6, 1
  br i1 %7, label %11, label %8

8:                                                ; preds = %2
  %9 = load i32, i32* %4, align 4
  %10 = icmp eq i32 %9, 2
  br i1 %10, label %11, label %16

11:                                               ; preds = %8, %2
  %12 = load i32, i32* %5, align 4
  %13 = icmp eq i32 %12, 1
  br i1 %13, label %14, label %15

14:                                               ; preds = %11
  store i32 1, i32* %3, align 4
  br label %21

15:                                               ; preds = %11
  store i32 0, i32* %3, align 4
  br label %21

16:                                               ; preds = %8
  %17 = load i32, i32* %5, align 4
  %18 = icmp eq i32 %17, 1
  br i1 %18, label %19, label %20

19:                                               ; preds = %16
  store i32 0, i32* %3, align 4
  br label %21

20:                                               ; preds = %16
  store i32 1, i32* %3, align 4
  br label %21

21:                                               ; preds = %20, %19, %15, %14
  %22 = load i32, i32* %3, align 4
  ret i32 %22
}

; Function Attrs: noinline norecurse uwtable
define dso_local i32 @main() #5 {
  %1 = alloca i32, align 4
  %2 = alloca i32, align 4
  %3 = alloca i32, align 4
  %4 = alloca i32, align 4
  %5 = alloca i32, align 4
  %6 = alloca i32, align 4
  %7 = alloca i32, align 4
  %8 = alloca i32, align 4
  %9 = alloca i32, align 4
  %10 = alloca i32, align 4
  %11 = alloca i32, align 4
  store i32 0, i32* %1, align 4
  store i32 1, i32* %2, align 4
  br label %12

12:                                               ; preds = %134, %0
  %13 = load i32, i32* %2, align 4
  %14 = icmp sle i32 %13, 5
  br i1 %14, label %15, label %137

15:                                               ; preds = %12
  store i32 1, i32* %3, align 4
  br label %16

16:                                               ; preds = %130, %15
  %17 = load i32, i32* %3, align 4
  %18 = icmp sle i32 %17, 5
  br i1 %18, label %19, label %133

19:                                               ; preds = %16
  %20 = load i32, i32* %2, align 4
  %21 = load i32, i32* %3, align 4
  %22 = icmp eq i32 %20, %21
  br i1 %22, label %23, label %24

23:                                               ; preds = %19
  br label %130

24:                                               ; preds = %19
  store i32 1, i32* %4, align 4
  br label %25

25:                                               ; preds = %126, %24
  %26 = load i32, i32* %4, align 4
  %27 = icmp sle i32 %26, 5
  br i1 %27, label %28, label %129

28:                                               ; preds = %25
  %29 = load i32, i32* %2, align 4
  %30 = load i32, i32* %4, align 4
  %31 = icmp eq i32 %29, %30
  br i1 %31, label %36, label %32

32:                                               ; preds = %28
  %33 = load i32, i32* %3, align 4
  %34 = load i32, i32* %4, align 4
  %35 = icmp eq i32 %33, %34
  br i1 %35, label %36, label %37

36:                                               ; preds = %32, %28
  br label %126

37:                                               ; preds = %32
  store i32 1, i32* %5, align 4
  br label %38

38:                                               ; preds = %122, %37
  %39 = load i32, i32* %5, align 4
  %40 = icmp sle i32 %39, 5
  br i1 %40, label %41, label %125

41:                                               ; preds = %38
  %42 = load i32, i32* %2, align 4
  %43 = load i32, i32* %5, align 4
  %44 = icmp eq i32 %42, %43
  br i1 %44, label %53, label %45

45:                                               ; preds = %41
  %46 = load i32, i32* %3, align 4
  %47 = load i32, i32* %5, align 4
  %48 = icmp eq i32 %46, %47
  br i1 %48, label %53, label %49

49:                                               ; preds = %45
  %50 = load i32, i32* %4, align 4
  %51 = load i32, i32* %5, align 4
  %52 = icmp eq i32 %50, %51
  br i1 %52, label %53, label %54

53:                                               ; preds = %49, %45, %41
  br label %122

54:                                               ; preds = %49
  %55 = load i32, i32* %2, align 4
  %56 = sub nsw i32 15, %55
  %57 = load i32, i32* %3, align 4
  %58 = sub nsw i32 %56, %57
  %59 = load i32, i32* %4, align 4
  %60 = sub nsw i32 %58, %59
  %61 = load i32, i32* %5, align 4
  %62 = sub nsw i32 %60, %61
  store i32 %62, i32* %6, align 4
  %63 = load i32, i32* %6, align 4
  %64 = icmp ne i32 %63, 2
  br i1 %64, label %65, label %121

65:                                               ; preds = %54
  %66 = load i32, i32* %6, align 4
  %67 = icmp ne i32 %66, 3
  br i1 %67, label %68, label %121

68:                                               ; preds = %65
  %69 = load i32, i32* %6, align 4
  %70 = icmp eq i32 %69, 1
  %71 = zext i1 %70 to i32
  store i32 %71, i32* %7, align 4
  %72 = load i32, i32* %3, align 4
  %73 = icmp eq i32 %72, 2
  %74 = zext i1 %73 to i32
  store i32 %74, i32* %8, align 4
  %75 = load i32, i32* %2, align 4
  %76 = icmp eq i32 %75, 5
  %77 = zext i1 %76 to i32
  store i32 %77, i32* %9, align 4
  %78 = load i32, i32* %4, align 4
  %79 = icmp ne i32 %78, 1
  %80 = zext i1 %79 to i32
  store i32 %80, i32* %10, align 4
  %81 = load i32, i32* %5, align 4
  %82 = icmp eq i32 %81, 1
  %83 = zext i1 %82 to i32
  store i32 %83, i32* %11, align 4
  %84 = load i32, i32* %2, align 4
  %85 = load i32, i32* %7, align 4
  %86 = call i32 @_Z2bbii(i32 %84, i32 %85)
  %87 = load i32, i32* %3, align 4
  %88 = load i32, i32* %8, align 4
  %89 = call i32 @_Z2bbii(i32 %87, i32 %88)
  %90 = add nsw i32 %86, %89
  %91 = load i32, i32* %4, align 4
  %92 = load i32, i32* %9, align 4
  %93 = call i32 @_Z2bbii(i32 %91, i32 %92)
  %94 = add nsw i32 %90, %93
  %95 = load i32, i32* %5, align 4
  %96 = load i32, i32* %10, align 4
  %97 = call i32 @_Z2bbii(i32 %95, i32 %96)
  %98 = add nsw i32 %94, %97
  %99 = load i32, i32* %6, align 4
  %100 = load i32, i32* %11, align 4
  %101 = call i32 @_Z2bbii(i32 %99, i32 %100)
  %102 = add nsw i32 %98, %101
  %103 = icmp eq i32 %102, 5
  br i1 %103, label %104, label %120

104:                                              ; preds = %68
  %105 = load i32, i32* %2, align 4
  %106 = call dereferenceable(272) %"class.std::basic_ostream"* @_ZNSolsEi(%"class.std::basic_ostream"* @_ZSt4cout, i32 %105)
  %107 = call dereferenceable(272) %"class.std::basic_ostream"* @_ZStlsISt11char_traitsIcEERSt13basic_ostreamIcT_ES5_PKc(%"class.std::basic_ostream"* dereferenceable(272) %106, i8* getelementptr inbounds ([2 x i8], [2 x i8]* @.str, i64 0, i64 0))
  %108 = load i32, i32* %3, align 4
  %109 = call dereferenceable(272) %"class.std::basic_ostream"* @_ZNSolsEi(%"class.std::basic_ostream"* %107, i32 %108)
  %110 = call dereferenceable(272) %"class.std::basic_ostream"* @_ZStlsISt11char_traitsIcEERSt13basic_ostreamIcT_ES5_PKc(%"class.std::basic_ostream"* dereferenceable(272) %109, i8* getelementptr inbounds ([2 x i8], [2 x i8]* @.str, i64 0, i64 0))
  %111 = load i32, i32* %4, align 4
  %112 = call dereferenceable(272) %"class.std::basic_ostream"* @_ZNSolsEi(%"class.std::basic_ostream"* %110, i32 %111)
  %113 = call dereferenceable(272) %"class.std::basic_ostream"* @_ZStlsISt11char_traitsIcEERSt13basic_ostreamIcT_ES5_PKc(%"class.std::basic_ostream"* dereferenceable(272) %112, i8* getelementptr inbounds ([2 x i8], [2 x i8]* @.str, i64 0, i64 0))
  %114 = load i32, i32* %5, align 4
  %115 = call dereferenceable(272) %"class.std::basic_ostream"* @_ZNSolsEi(%"class.std::basic_ostream"* %113, i32 %114)
  %116 = call dereferenceable(272) %"class.std::basic_ostream"* @_ZStlsISt11char_traitsIcEERSt13basic_ostreamIcT_ES5_PKc(%"class.std::basic_ostream"* dereferenceable(272) %115, i8* getelementptr inbounds ([2 x i8], [2 x i8]* @.str, i64 0, i64 0))
  %117 = load i32, i32* %6, align 4
  %118 = call dereferenceable(272) %"class.std::basic_ostream"* @_ZNSolsEi(%"class.std::basic_ostream"* %116, i32 %117)
  %119 = call dereferenceable(272) %"class.std::basic_ostream"* @_ZNSolsEPFRSoS_E(%"class.std::basic_ostream"* %118, %"class.std::basic_ostream"* (%"class.std::basic_ostream"*)* @_ZSt4endlIcSt11char_traitsIcEERSt13basic_ostreamIT_T0_ES6_)
  br label %120

120:                                              ; preds = %104, %68
  br label %121

121:                                              ; preds = %120, %65, %54
  br label %122

122:                                              ; preds = %121, %53
  %123 = load i32, i32* %5, align 4
  %124 = add nsw i32 %123, 1
  store i32 %124, i32* %5, align 4
  br label %38

125:                                              ; preds = %38
  br label %126

126:                                              ; preds = %125, %36
  %127 = load i32, i32* %4, align 4
  %128 = add nsw i32 %127, 1
  store i32 %128, i32* %4, align 4
  br label %25

129:                                              ; preds = %25
  br label %130

130:                                              ; preds = %129, %23
  %131 = load i32, i32* %3, align 4
  %132 = add nsw i32 %131, 1
  store i32 %132, i32* %3, align 4
  br label %16

133:                                              ; preds = %16
  br label %134

134:                                              ; preds = %133
  %135 = load i32, i32* %2, align 4
  %136 = add nsw i32 %135, 1
  store i32 %136, i32* %2, align 4
  br label %12

137:                                              ; preds = %12
  ret i32 0
}

declare dso_local dereferenceable(272) %"class.std::basic_ostream"* @_ZStlsISt11char_traitsIcEERSt13basic_ostreamIcT_ES5_PKc(%"class.std::basic_ostream"* dereferenceable(272), i8*) #1

declare dso_local dereferenceable(272) %"class.std::basic_ostream"* @_ZNSolsEi(%"class.std::basic_ostream"*, i32) #1

declare dso_local dereferenceable(272) %"class.std::basic_ostream"* @_ZNSolsEPFRSoS_E(%"class.std::basic_ostream"*, %"class.std::basic_ostream"* (%"class.std::basic_ostream"*)*) #1

declare dso_local dereferenceable(272) %"class.std::basic_ostream"* @_ZSt4endlIcSt11char_traitsIcEERSt13basic_ostreamIT_T0_ES6_(%"class.std::basic_ostream"* dereferenceable(272)) #1

; Function Attrs: noinline uwtable
define internal void @_GLOBAL__sub_I_552.cpp() #0 section ".text.startup" {
  call void @__cxx_global_var_init()
  ret void
}


!llvm.module.flags = !{!0}
!llvm.ident = !{!1}

!0 = !{i32 1, !"wchar_size", i32 4}
!1 = !{!"clang version 10.0.0-4ubuntu1 "}
